target datalayout = "e-m:e-p270:32:32-p271:32:32-p272:64:64-i64:64-i128:128-f80:128-n8:16:32:64-S128"
target triple = "x86_64-pc-linux-gnu"

%struct.darktable_t = type { %struct.dt_codepath_t, i32, i32, ptr, ptr, ptr, ptr, ptr, ptr, ptr, ptr, ptr, ptr, ptr, ptr, ptr, ptr, ptr, ptr, ptr, ptr, ptr, ptr, ptr, ptr, ptr, ptr, ptr, ptr, ptr, [64 x %struct.dt_pthread_mutex_t], %struct.dt_pthread_mutex_t, %struct.dt_pthread_mutex_t, %struct.dt_pthread_mutex_t, %struct.dt_pthread_mutex_t, %struct.dt_pthread_mutex_t, ptr, ptr, ptr, ptr, ptr, ptr, ptr, ptr, ptr, ptr, ptr, ptr, ptr, %struct.dt_lua_state_t, ptr, double, ptr, i32, [47 x i32], i32, i32, ptr, ptr, %struct.dt_sys_resources_t, %struct.dt_backthumb_t, %struct.dt_gimp_t }
%struct.dt_codepath_t = type { i8, [3 x i8] }
%struct.dt_pthread_mutex_t = type { %union.pthread_mutex_t }
%union.pthread_mutex_t = type { %struct.__pthread_mutex_s }
%struct.__pthread_mutex_s = type { i32, i32, i32, i32, i32, i16, i16, %struct.__pthread_internal_list }
%struct.__pthread_internal_list = type { ptr, ptr }
%struct.dt_lua_state_t = type { i32 }
%struct.dt_sys_resources_t = type { i64, i64, ptr, ptr, i32 }
%struct.dt_backthumb_t = type { double, double, i32, i32, i32, i32 }
%struct.dt_gimp_t = type { i32, ptr, ptr, i32, i32 }
%struct.dt_gpx_t = type { ptr, ptr, ptr, i32, i32, i32, i32, ptr }
%struct.dt_gpx_track_point_t = type { double, double, double, ptr, i32 }
%struct.dt_gpx_track_segment_t = type { i32, ptr, ptr, ptr, ptr, i32 }
%struct._GList = type { ptr, ptr, ptr }

@darktable = external global %struct.darktable_t, align 8
@.str.4 = private unnamed_addr constant [15 x i8] c"*error == NULL\00", align 1
@.str.17 = private unnamed_addr constant [25 x i8] c"failed to parse GPX file\00", align 1
@__func__._gpx_parser_text = private unnamed_addr constant [17 x i8] c"_gpx_parser_text\00", align 1
@.str.18 = private unnamed_addr constant [66 x i8] c"broken GPX file, failed to parse iso8601 time '%s' for trackpoint\00", align 1
@.str.19 = private unnamed_addr constant [35 x i8] c"broken GPX file, no <trkseg> found\00", align 1

; Function Attrs: nounwind uwtable
define internal void @_gpx_parse_error(ptr noundef %0) #0 {
  %2 = alloca ptr, align 8
  store ptr %0, ptr %2, align 8, !tbaa !102
  %3 = load ptr, ptr %2, align 8, !tbaa !102
  %4 = call i32 @g_markup_error_quark()
  %5 = call ptr @dcgettext(ptr noundef null, ptr noundef @.str.17, i32 noundef 5) #10
  call void (ptr, i32, i32, ptr, ...) @g_set_error(ptr noundef %3, i32 noundef %4, i32 noundef 2, ptr noundef %5)
  ret void
}

; Function Attrs: nounwind uwtable
define internal void @_gpx_parser_text(ptr noundef %0, ptr noundef %1, i64 noundef %2, ptr noundef %3, ptr noundef %4) #0 {
  %6 = alloca ptr, align 8
  %7 = alloca ptr, align 8
  %8 = alloca i64, align 8
  %9 = alloca ptr, align 8
  %10 = alloca ptr, align 8
  %11 = alloca i32, align 4
  %12 = alloca i32, align 4
  %13 = alloca ptr, align 8
  %14 = alloca i32, align 4
  %15 = alloca ptr, align 8
  store ptr %0, ptr %6, align 8, !tbaa !15
  store ptr %1, ptr %7, align 8, !tbaa !6
  store i64 %2, ptr %8, align 8, !tbaa !88
  store ptr %3, ptr %9, align 8, !tbaa !65
  store ptr %4, ptr %10, align 8, !tbaa !102
  br label %16

16:                                               ; preds = %5
  call void @llvm.lifetime.start.p0(i64 4, ptr %11) #10
  %17 = load ptr, ptr %10, align 8, !tbaa !102
  %18 = load ptr, ptr %17, align 8, !tbaa !11
  %19 = icmp eq ptr %18, null
  br i1 %19, label %20, label %21

20:                                               ; preds = %16
  store i32 1, ptr %11, align 4, !tbaa !13
  br label %22

21:                                               ; preds = %16
  store i32 0, ptr %11, align 4, !tbaa !13
  br label %22

22:                                               ; preds = %21, %20
  %23 = load i32, ptr %11, align 4, !tbaa !13
  store i32 %23, ptr %12, align 4, !tbaa !13
  call void @llvm.lifetime.end.p0(i64 4, ptr %11) #10
  %24 = load i32, ptr %12, align 4, !tbaa !13
  %25 = sext i32 %24 to i64
  %26 = call i64 @llvm.expect.i64(i64 %25, i64 1)
  %27 = icmp ne i64 %26, 0
  br i1 %27, label %28, label %29

28:                                               ; preds = %22
  br label %30

29:                                               ; preds = %22
  call void @g_return_if_fail_warning(ptr noundef null, ptr noundef @__func__._gpx_parser_text, ptr noundef @.str.4)
  br label %160

30:                                               ; preds = %28
  br label %31

31:                                               ; preds = %30
  call void @llvm.lifetime.start.p0(i64 8, ptr %13) #10
  %32 = load ptr, ptr %9, align 8, !tbaa !65
  store ptr %32, ptr %13, align 8, !tbaa !17
  %33 = load ptr, ptr %13, align 8, !tbaa !17
  %34 = getelementptr inbounds nuw %struct.dt_gpx_t, ptr %33, i32 0, i32 3
  %35 = load i32, ptr %34, align 8, !tbaa !108
  %36 = icmp eq i32 %35, 8
  br i1 %36, label %37, label %51

37:                                               ; preds = %31
  %38 = load ptr, ptr %13, align 8, !tbaa !17
  %39 = getelementptr inbounds nuw %struct.dt_gpx_t, ptr %38, i32 0, i32 7
  %40 = load ptr, ptr %39, align 8, !tbaa !109
  %41 = icmp ne ptr %40, null
  br i1 %41, label %42, label %46

42:                                               ; preds = %37
  %43 = load ptr, ptr %13, align 8, !tbaa !17
  %44 = getelementptr inbounds nuw %struct.dt_gpx_t, ptr %43, i32 0, i32 7
  %45 = load ptr, ptr %44, align 8, !tbaa !109
  call void @g_free(ptr noundef %45)
  br label %46

46:                                               ; preds = %42, %37
  %47 = load ptr, ptr %7, align 8, !tbaa !6
  %48 = call noalias ptr @g_strdup(ptr noundef %47)
  %49 = load ptr, ptr %13, align 8, !tbaa !17
  %50 = getelementptr inbounds nuw %struct.dt_gpx_t, ptr %49, i32 0, i32 7
  store ptr %48, ptr %50, align 8, !tbaa !109
  br label %51

51:                                               ; preds = %46, %31
  %52 = load ptr, ptr %13, align 8, !tbaa !17
  %53 = getelementptr inbounds nuw %struct.dt_gpx_t, ptr %52, i32 0, i32 2
  %54 = load ptr, ptr %53, align 8, !tbaa !105
  %55 = icmp ne ptr %54, null
  br i1 %55, label %57, label %56

56:                                               ; preds = %51
  store i32 1, ptr %14, align 4
  br label %158

57:                                               ; preds = %51
  %58 = load ptr, ptr %13, align 8, !tbaa !17
  %59 = getelementptr inbounds nuw %struct.dt_gpx_t, ptr %58, i32 0, i32 3
  %60 = load i32, ptr %59, align 8, !tbaa !108
  %61 = icmp eq i32 %60, 2
  br i1 %61, label %62, label %144

62:                                               ; preds = %57
  %63 = load ptr, ptr %7, align 8, !tbaa !6
  %64 = call ptr @g_date_time_new_from_iso8601(ptr noundef %63, ptr noundef null)
  %65 = load ptr, ptr %13, align 8, !tbaa !17
  %66 = getelementptr inbounds nuw %struct.dt_gpx_t, ptr %65, i32 0, i32 2
  %67 = load ptr, ptr %66, align 8, !tbaa !105
  %68 = getelementptr inbounds nuw %struct.dt_gpx_track_point_t, ptr %67, i32 0, i32 3
  store ptr %64, ptr %68, align 8, !tbaa !67
  %69 = load ptr, ptr %13, align 8, !tbaa !17
  %70 = getelementptr inbounds nuw %struct.dt_gpx_t, ptr %69, i32 0, i32 2
  %71 = load ptr, ptr %70, align 8, !tbaa !105
  %72 = getelementptr inbounds nuw %struct.dt_gpx_track_point_t, ptr %71, i32 0, i32 3
  %73 = load ptr, ptr %72, align 8, !tbaa !67
  %74 = icmp ne ptr %73, null
  br i1 %74, label %89, label %75

75:                                               ; preds = %62
  %76 = load ptr, ptr %13, align 8, !tbaa !17
  %77 = getelementptr inbounds nuw %struct.dt_gpx_t, ptr %76, i32 0, i32 4
  store i32 1, ptr %77, align 4, !tbaa !106
  br label %78

78:                                               ; preds = %75
  %79 = load i32, ptr getelementptr inbounds nuw (%struct.darktable_t, ptr @darktable, i32 0, i32 2), align 8, !tbaa !27
  %80 = xor i32 %79, -1
  %81 = and i32 0, %80
  %82 = icmp ne i32 %81, 0
  br i1 %82, label %85, label %83

83:                                               ; preds = %78
  %84 = load ptr, ptr %7, align 8, !tbaa !6
  call void (ptr, ...) @dt_print_ext(ptr noundef @.str.18, ptr noundef %84)
  br label %85

85:                                               ; preds = %83, %78
  br label %86

86:                                               ; preds = %85
  br label %87

87:                                               ; preds = %86
  %88 = load ptr, ptr %10, align 8, !tbaa !102
  call void @_gpx_parse_error(ptr noundef %88)
  store i32 1, ptr %14, align 4
  br label %158

89:                                               ; preds = %62
  %90 = load ptr, ptr %13, align 8, !tbaa !17
  %91 = getelementptr inbounds nuw %struct.dt_gpx_t, ptr %90, i32 0, i32 1
  %92 = load ptr, ptr %91, align 8, !tbaa !26
  %93 = icmp ne ptr %92, null
  br i1 %93, label %105, label %94

94:                                               ; preds = %89
  br label %95

95:                                               ; preds = %94
  %96 = load i32, ptr getelementptr inbounds nuw (%struct.darktable_t, ptr @darktable, i32 0, i32 2), align 8, !tbaa !27
  %97 = xor i32 %96, -1
  %98 = and i32 0, %97
  %99 = icmp ne i32 %98, 0
  br i1 %99, label %101, label %100

100:                                              ; preds = %95
  call void (ptr, ...) @dt_print_ext(ptr noundef @.str.19)
  br label %101

101:                                              ; preds = %100, %95
  br label %102

102:                                              ; preds = %101
  br label %103

103:                                              ; preds = %102
  %104 = load ptr, ptr %10, align 8, !tbaa !102
  call void @_gpx_parse_error(ptr noundef %104)
  store i32 1, ptr %14, align 4
  br label %158

105:                                              ; preds = %89
  call void @llvm.lifetime.start.p0(i64 8, ptr %15) #10
  %106 = load ptr, ptr %13, align 8, !tbaa !17
  %107 = getelementptr inbounds nuw %struct.dt_gpx_t, ptr %106, i32 0, i32 1
  %108 = load ptr, ptr %107, align 8, !tbaa !26
  %109 = getelementptr inbounds nuw %struct._GList, ptr %108, i32 0, i32 0
  %110 = load ptr, ptr %109, align 8, !tbaa !78
  store ptr %110, ptr %15, align 8, !tbaa !69
  %111 = load ptr, ptr %15, align 8, !tbaa !69
  %112 = icmp ne ptr %111, null
  br i1 %112, label %113, label %143

113:                                              ; preds = %105
  %114 = load ptr, ptr %15, align 8, !tbaa !69
  %115 = getelementptr inbounds nuw %struct.dt_gpx_track_segment_t, ptr %114, i32 0, i32 5
  %116 = load i32, ptr %115, align 8, !tbaa !111
  %117 = add i32 %116, 1
  store i32 %117, ptr %115, align 8, !tbaa !111
  %118 = load ptr, ptr %15, align 8, !tbaa !69
  %119 = getelementptr inbounds nuw %struct.dt_gpx_track_segment_t, ptr %118, i32 0, i32 1
  %120 = load ptr, ptr %119, align 8, !tbaa !71
  %121 = icmp ne ptr %120, null
  br i1 %121, label %135, label %122

122:                                              ; preds = %113
  %123 = load ptr, ptr %13, align 8, !tbaa !17
  %124 = getelementptr inbounds nuw %struct.dt_gpx_t, ptr %123, i32 0, i32 2
  %125 = load ptr, ptr %124, align 8, !tbaa !105
  %126 = getelementptr inbounds nuw %struct.dt_gpx_track_point_t, ptr %125, i32 0, i32 3
  %127 = load ptr, ptr %126, align 8, !tbaa !67
  %128 = load ptr, ptr %15, align 8, !tbaa !69
  %129 = getelementptr inbounds nuw %struct.dt_gpx_track_segment_t, ptr %128, i32 0, i32 1
  store ptr %127, ptr %129, align 8, !tbaa !71
  %130 = load ptr, ptr %13, align 8, !tbaa !17
  %131 = getelementptr inbounds nuw %struct.dt_gpx_t, ptr %130, i32 0, i32 2
  %132 = load ptr, ptr %131, align 8, !tbaa !105
  %133 = load ptr, ptr %15, align 8, !tbaa !69
  %134 = getelementptr inbounds nuw %struct.dt_gpx_track_segment_t, ptr %133, i32 0, i32 4
  store ptr %132, ptr %134, align 8, !tbaa !92
  br label %135

135:                                              ; preds = %122, %113
  %136 = load ptr, ptr %13, align 8, !tbaa !17
  %137 = getelementptr inbounds nuw %struct.dt_gpx_t, ptr %136, i32 0, i32 2
  %138 = load ptr, ptr %137, align 8, !tbaa !105
  %139 = getelementptr inbounds nuw %struct.dt_gpx_track_point_t, ptr %138, i32 0, i32 3
  %140 = load ptr, ptr %139, align 8, !tbaa !67
  %141 = load ptr, ptr %15, align 8, !tbaa !69
  %142 = getelementptr inbounds nuw %struct.dt_gpx_track_segment_t, ptr %141, i32 0, i32 2
  store ptr %140, ptr %142, align 8, !tbaa !112
  br label %143

143:                                              ; preds = %135, %105
  call void @llvm.lifetime.end.p0(i64 8, ptr %15) #10
  br label %157

144:                                              ; preds = %57
  %145 = load ptr, ptr %13, align 8, !tbaa !17
  %146 = getelementptr inbounds nuw %struct.dt_gpx_t, ptr %145, i32 0, i32 3
  %147 = load i32, ptr %146, align 8, !tbaa !108
  %148 = icmp eq i32 %147, 4
  br i1 %148, label %149, label %156

149:                                              ; preds = %144
  %150 = load ptr, ptr %7, align 8, !tbaa !6
  %151 = call reassoc nsz arcp contract afn double @g_ascii_strtod(ptr noundef %150, ptr noundef null)
  %152 = load ptr, ptr %13, align 8, !tbaa !17
  %153 = getelementptr inbounds nuw %struct.dt_gpx_t, ptr %152, i32 0, i32 2
  %154 = load ptr, ptr %153, align 8, !tbaa !105
  %155 = getelementptr inbounds nuw %struct.dt_gpx_track_point_t, ptr %154, i32 0, i32 2
  store double %151, ptr %155, align 8, !tbaa !86
  br label %156

156:                                              ; preds = %149, %144
  br label %157

157:                                              ; preds = %156, %143
  store i32 0, ptr %14, align 4
  br label %158

158:                                              ; preds = %157, %103, %87, %56
  call void @llvm.lifetime.end.p0(i64 8, ptr %13) #10
  %159 = load i32, ptr %14, align 4
  switch i32 %159, label %161 [
    i32 0, label %160
    i32 1, label %160
  ]

160:                                              ; preds = %29, %158, %158
  ret void

161:                                              ; preds = %158
  unreachable
}