; Function Attrs: nounwind uwtable
define internal void @_gpx_parser_text(ptr readnone captures(none) %0, ptr noundef %1, i64 %2, ptr noundef captures(none) %3, ptr noundef %4) #0 {
  %6 = load ptr, ptr %4, align 8, !tbaa !6
  %.not = icmp eq ptr %6, null
  br i1 %.not, label %8, label %7, !prof !46

7:                                                ; preds = %5
  tail call void @g_return_if_fail_warning(ptr noundef null, ptr noundef nonnull @__func__._gpx_parser_text, ptr noundef nonnull @.str.4) #11
  br label %53

8:                                                ; preds = %5
  %9 = getelementptr inbounds nuw i8, ptr %3, i64 24
  %10 = load i32, ptr %9, align 8, !tbaa !52
  %11 = icmp eq i32 %10, 8
  br i1 %11, label %12, label %18

12:                                               ; preds = %8
  %13 = getelementptr inbounds nuw i8, ptr %3, i64 40
  %14 = load ptr, ptr %13, align 8, !tbaa !53
  %.not35 = icmp eq ptr %14, null
  br i1 %.not35, label %16, label %15

15:                                               ; preds = %12
  tail call void @g_free(ptr noundef nonnull %14) #11
  br label %16

16:                                               ; preds = %15, %12
  %17 = tail call noalias ptr @g_strdup(ptr noundef %1) #11
  store ptr %17, ptr %13, align 8, !tbaa !53
  br label %18

18:                                               ; preds = %16, %8
  %19 = getelementptr inbounds nuw i8, ptr %3, i64 16
  %20 = load ptr, ptr %19, align 8, !tbaa !48
  %.not36 = icmp eq ptr %20, null
  br i1 %.not36, label %53, label %21

21:                                               ; preds = %18
  %22 = load i32, ptr %9, align 8, !tbaa !52
  switch i32 %22, label %53 [
    i32 2, label %23
    i32 4, label %49
  ]

23:                                               ; preds = %21
  %24 = tail call ptr @g_date_time_new_from_iso8601(ptr noundef %1, ptr noundef null) #11
  %25 = load ptr, ptr %19, align 8, !tbaa !48
  %26 = getelementptr inbounds nuw i8, ptr %25, i64 24
  store ptr %24, ptr %26, align 8, !tbaa !21
  %.not37 = icmp eq ptr %24, null
  br i1 %.not37, label %27, label %31

27:                                               ; preds = %23
  %28 = getelementptr inbounds nuw i8, ptr %3, i64 28
  store i32 1, ptr %28, align 4, !tbaa !49
  tail call void (ptr, ...) @dt_print_ext(ptr noundef nonnull @.str.18, ptr noundef %1) #11
  %29 = tail call i32 @g_markup_error_quark() #11
  %30 = tail call ptr @dcgettext(ptr noundef null, ptr noundef nonnull @.str.17, i32 noundef 5) #11
  tail call void (ptr, i32, i32, ptr, ...) @g_set_error(ptr noundef nonnull %4, i32 noundef %29, i32 noundef 2, ptr noundef %30) #11
  br label %53

31:                                               ; preds = %23
  %32 = getelementptr inbounds nuw i8, ptr %3, i64 8
  %33 = load ptr, ptr %32, align 8, !tbaa !18
  %.not38 = icmp eq ptr %33, null
  br i1 %.not38, label %34, label %37

34:                                               ; preds = %31
  tail call void (ptr, ...) @dt_print_ext(ptr noundef nonnull @.str.19) #11
  %35 = tail call i32 @g_markup_error_quark() #11
  %36 = tail call ptr @dcgettext(ptr noundef null, ptr noundef nonnull @.str.17, i32 noundef 5) #11
  tail call void (ptr, i32, i32, ptr, ...) @g_set_error(ptr noundef nonnull %4, i32 noundef %35, i32 noundef 2, ptr noundef %36) #11
  br label %53

37:                                               ; preds = %31
  %38 = load ptr, ptr %33, align 8, !tbaa !31
  %.not39 = icmp eq ptr %38, null
  br i1 %.not39, label %53, label %39

39:                                               ; preds = %37
  %40 = getelementptr inbounds nuw i8, ptr %38, i64 40
  %41 = load i32, ptr %40, align 8, !tbaa !55
  %42 = add i32 %41, 1
  store i32 %42, ptr %40, align 8, !tbaa !55
  %43 = getelementptr inbounds nuw i8, ptr %38, i64 8
  %44 = load ptr, ptr %43, align 8, !tbaa !25
  %.not40 = icmp eq ptr %44, null
  br i1 %.not40, label %45, label %47

45:                                               ; preds = %39
  store ptr %24, ptr %43, align 8, !tbaa !25
  %46 = getelementptr inbounds nuw i8, ptr %38, i64 32
  store ptr %25, ptr %46, align 8, !tbaa !40
  br label %47

47:                                               ; preds = %45, %39
  %48 = getelementptr inbounds nuw i8, ptr %38, i64 16
  store ptr %24, ptr %48, align 8, !tbaa !56
  br label %53

49:                                               ; preds = %21
  %50 = tail call reassoc nsz arcp contract afn double @g_ascii_strtod(ptr noundef %1, ptr noundef null) #11
  %51 = load ptr, ptr %19, align 8, !tbaa !48
  %52 = getelementptr inbounds nuw i8, ptr %51, i64 16
  store double %50, ptr %52, align 8, !tbaa !37
  br label %53

53:                                               ; preds = %27, %34, %18, %21, %37, %47, %49, %7
  ret void
}